target datalayout = "e-m:e-p270:32:32-p271:32:32-p272:64:64-i64:64-i128:128-f80:128-n8:16:32:64-S128"
target triple = "x86_64-pc-linux-gnu"

%"class.cv::Mat_" = type { %"class.cv::Mat" }
%"class.cv::Mat" = type { i32, i32, i32, i32, ptr, ptr, ptr, ptr, ptr, ptr, %"struct.cv::MatSize", %"struct.cv::MatStep" }
%"struct.cv::MatSize" = type { ptr }
%"struct.cv::MatStep" = type { ptr, [2 x i64] }
%"class.cv::Range" = type { i32, i32 }
%"class.cv::ParallelLoopBody" = type { ptr }
%"struct.cv::optflow::ForwardGradientBody" = type { %"class.cv::ParallelLoopBody", %"class.cv::Mat_", %"class.cv::Mat_", %"class.cv::Mat_" }

; Function Attrs: inlinehint mustprogress nounwind uwtable
define linkonce_odr hidden noundef ptr @_ZN2cv4Mat_IfEixEi(ptr noundef nonnull align 8 dereferenceable(96) %0, i32 noundef %1) #6 comdat align 2 {
  %3 = alloca ptr, align 8
  %4 = alloca i32, align 4
  store ptr %0, ptr %3, align 8, !tbaa !86
  store i32 %1, ptr %4, align 4, !tbaa !55
  %5 = load ptr, ptr %3, align 8
  %6 = getelementptr inbounds nuw %"class.cv::Mat", ptr %5, i32 0, i32 4
  %7 = load ptr, ptr %6, align 8, !tbaa !112
  %8 = load i32, ptr %4, align 4, !tbaa !55
  %9 = sext i32 %8 to i64
  %10 = getelementptr inbounds nuw %"class.cv::Mat", ptr %5, i32 0, i32 11
  %11 = getelementptr inbounds nuw %"struct.cv::MatStep", ptr %10, i32 0, i32 0
  %12 = load ptr, ptr %11, align 8, !tbaa !113
  %13 = getelementptr inbounds i64, ptr %12, i64 0
  %14 = load i64, ptr %13, align 8, !tbaa !81
  %15 = mul i64 %9, %14
  %16 = getelementptr inbounds nuw i8, ptr %7, i64 %15
  ret ptr %16
}

; Function Attrs: inlinehint mustprogress nounwind uwtable
define linkonce_odr hidden noundef ptr @_ZNK2cv4Mat_IfEixEi(ptr noundef nonnull align 8 dereferenceable(96) %0, i32 noundef %1) #6 comdat align 2 {
  %3 = alloca ptr, align 8
  %4 = alloca i32, align 4
  store ptr %0, ptr %3, align 8, !tbaa !86
  store i32 %1, ptr %4, align 4, !tbaa !55
  %5 = load ptr, ptr %3, align 8
  %6 = getelementptr inbounds nuw %"class.cv::Mat", ptr %5, i32 0, i32 4
  %7 = load ptr, ptr %6, align 8, !tbaa !112
  %8 = load i32, ptr %4, align 4, !tbaa !55
  %9 = sext i32 %8 to i64
  %10 = getelementptr inbounds nuw %"class.cv::Mat", ptr %5, i32 0, i32 11
  %11 = getelementptr inbounds nuw %"struct.cv::MatStep", ptr %10, i32 0, i32 0
  %12 = load ptr, ptr %11, align 8, !tbaa !113
  %13 = getelementptr inbounds i64, ptr %12, i64 0
  %14 = load i64, ptr %13, align 8, !tbaa !81
  %15 = mul i64 %9, %14
  %16 = getelementptr inbounds nuw i8, ptr %7, i64 %15
  ret ptr %16
}

; Function Attrs: mustprogress uwtable
define hidden void @_ZNK2cv7optflow19ForwardGradientBodyclERKNS_5RangeE(ptr noundef nonnull align 8 dereferenceable(296) %0, ptr noundef nonnull align 4 dereferenceable(8) %1) unnamed_addr #4 align 2 {
  %3 = alloca ptr, align 8
  %4 = alloca ptr, align 8
  %5 = alloca i32, align 4
  %6 = alloca i32, align 4
  %7 = alloca i32, align 4
  %8 = alloca ptr, align 8
  %9 = alloca ptr, align 8
  %10 = alloca ptr, align 8
  %11 = alloca ptr, align 8
  %12 = alloca i32, align 4
  store ptr %0, ptr %3, align 8, !tbaa !118
  store ptr %1, ptr %4, align 8, !tbaa !103
  %13 = load ptr, ptr %3, align 8
  call void @llvm.lifetime.start.p0(i64 4, ptr %5) #3
  %14 = getelementptr inbounds nuw %"struct.cv::optflow::ForwardGradientBody", ptr %13, i32 0, i32 1
  %15 = getelementptr inbounds nuw %"class.cv::Mat", ptr %14, i32 0, i32 3
  %16 = load i32, ptr %15, align 4, !tbaa !56
  %17 = sub nsw i32 %16, 1
  store i32 %17, ptr %5, align 4, !tbaa !55
  call void @llvm.lifetime.start.p0(i64 4, ptr %6) #3
  %18 = load ptr, ptr %4, align 8, !tbaa !103
  %19 = getelementptr inbounds nuw %"class.cv::Range", ptr %18, i32 0, i32 0
  %20 = load i32, ptr %19, align 4, !tbaa !105
  store i32 %20, ptr %6, align 4, !tbaa !55
  br label %21

21:                                               ; preds = %83, %2
  %22 = load i32, ptr %6, align 4, !tbaa !55
  %23 = load ptr, ptr %4, align 8, !tbaa !103
  %24 = getelementptr inbounds nuw %"class.cv::Range", ptr %23, i32 0, i32 1
  %25 = load i32, ptr %24, align 4, !tbaa !107
  %26 = icmp slt i32 %22, %25
  br i1 %26, label %28, label %27

27:                                               ; preds = %21
  store i32 2, ptr %7, align 4
  call void @llvm.lifetime.end.p0(i64 4, ptr %6) #3
  br label %86

28:                                               ; preds = %21
  call void @llvm.lifetime.start.p0(i64 8, ptr %8) #3
  %29 = getelementptr inbounds nuw %"struct.cv::optflow::ForwardGradientBody", ptr %13, i32 0, i32 1
  %30 = load i32, ptr %6, align 4, !tbaa !55
  %31 = call noundef ptr @_ZNK2cv4Mat_IfEixEi(ptr noundef nonnull align 8 dereferenceable(96) %29, i32 noundef %30)
  store ptr %31, ptr %8, align 8, !tbaa !108
  call void @llvm.lifetime.start.p0(i64 8, ptr %9) #3
  %32 = getelementptr inbounds nuw %"struct.cv::optflow::ForwardGradientBody", ptr %13, i32 0, i32 1
  %33 = load i32, ptr %6, align 4, !tbaa !55
  %34 = add nsw i32 %33, 1
  %35 = call noundef ptr @_ZNK2cv4Mat_IfEixEi(ptr noundef nonnull align 8 dereferenceable(96) %32, i32 noundef %34)
  store ptr %35, ptr %9, align 8, !tbaa !108
  call void @llvm.lifetime.start.p0(i64 8, ptr %10) #3
  %36 = getelementptr inbounds nuw %"struct.cv::optflow::ForwardGradientBody", ptr %13, i32 0, i32 2
  %37 = load i32, ptr %6, align 4, !tbaa !55
  %38 = call noundef ptr @_ZN2cv4Mat_IfEixEi(ptr noundef nonnull align 8 dereferenceable(96) %36, i32 noundef %37)
  store ptr %38, ptr %10, align 8, !tbaa !108
  call void @llvm.lifetime.start.p0(i64 8, ptr %11) #3
  %39 = getelementptr inbounds nuw %"struct.cv::optflow::ForwardGradientBody", ptr %13, i32 0, i32 3
  %40 = load i32, ptr %6, align 4, !tbaa !55
  %41 = call noundef ptr @_ZN2cv4Mat_IfEixEi(ptr noundef nonnull align 8 dereferenceable(96) %39, i32 noundef %40)
  store ptr %41, ptr %11, align 8, !tbaa !108
  call void @llvm.lifetime.start.p0(i64 4, ptr %12) #3
  store i32 0, ptr %12, align 4, !tbaa !55
  br label %42

42:                                               ; preds = %79, %28
  %43 = load i32, ptr %12, align 4, !tbaa !55
  %44 = load i32, ptr %5, align 4, !tbaa !55
  %45 = icmp slt i32 %43, %44
  br i1 %45, label %47, label %46

46:                                               ; preds = %42
  store i32 5, ptr %7, align 4
  call void @llvm.lifetime.end.p0(i64 4, ptr %12) #3
  br label %82

47:                                               ; preds = %42
  %48 = load ptr, ptr %8, align 8, !tbaa !108
  %49 = load i32, ptr %12, align 4, !tbaa !55
  %50 = add nsw i32 %49, 1
  %51 = sext i32 %50 to i64
  %52 = getelementptr inbounds float, ptr %48, i64 %51
  %53 = load float, ptr %52, align 4, !tbaa !91
  %54 = load ptr, ptr %8, align 8, !tbaa !108
  %55 = load i32, ptr %12, align 4, !tbaa !55
  %56 = sext i32 %55 to i64
  %57 = getelementptr inbounds float, ptr %54, i64 %56
  %58 = load float, ptr %57, align 4, !tbaa !91
  %59 = fsub float %53, %58
  %60 = load ptr, ptr %10, align 8, !tbaa !108
  %61 = load i32, ptr %12, align 4, !tbaa !55
  %62 = sext i32 %61 to i64
  %63 = getelementptr inbounds float, ptr %60, i64 %62
  store float %59, ptr %63, align 4, !tbaa !91
  %64 = load ptr, ptr %9, align 8, !tbaa !108
  %65 = load i32, ptr %12, align 4, !tbaa !55
  %66 = sext i32 %65 to i64
  %67 = getelementptr inbounds float, ptr %64, i64 %66
  %68 = load float, ptr %67, align 4, !tbaa !91
  %69 = load ptr, ptr %8, align 8, !tbaa !108
  %70 = load i32, ptr %12, align 4, !tbaa !55
  %71 = sext i32 %70 to i64
  %72 = getelementptr inbounds float, ptr %69, i64 %71
  %73 = load float, ptr %72, align 4, !tbaa !91
  %74 = fsub float %68, %73
  %75 = load ptr, ptr %11, align 8, !tbaa !108
  %76 = load i32, ptr %12, align 4, !tbaa !55
  %77 = sext i32 %76 to i64
  %78 = getelementptr inbounds float, ptr %75, i64 %77
  store float %74, ptr %78, align 4, !tbaa !91
  br label %79

79:                                               ; preds = %47
  %80 = load i32, ptr %12, align 4, !tbaa !55
  %81 = add nsw i32 %80, 1
  store i32 %81, ptr %12, align 4, !tbaa !55
  br label %42, !llvm.loop !120

82:                                               ; preds = %46
  call void @llvm.lifetime.end.p0(i64 8, ptr %11) #3
  call void @llvm.lifetime.end.p0(i64 8, ptr %10) #3
  call void @llvm.lifetime.end.p0(i64 8, ptr %9) #3
  call void @llvm.lifetime.end.p0(i64 8, ptr %8) #3
  br label %83

83:                                               ; preds = %82
  %84 = load i32, ptr %6, align 4, !tbaa !55
  %85 = add nsw i32 %84, 1
  store i32 %85, ptr %6, align 4, !tbaa !55
  br label %21, !llvm.loop !121

86:                                               ; preds = %27
  call void @llvm.lifetime.end.p0(i64 4, ptr %5) #3
  ret void
}