; Function Attrs: mustprogress nofree norecurse nosync nounwind memory(readwrite, inaccessiblemem: none) uwtable
define hidden void @_ZNK2cv7optflow19ForwardGradientBodyclERKNS_5RangeE(ptr noundef nonnull readonly align 8 captures(none) dereferenceable(296) %0, ptr noundef nonnull readonly align 4 captures(none) dereferenceable(8) %1) unnamed_addr #7 align 2 {
  %3 = getelementptr inbounds nuw i8, ptr %0, i64 20
  %4 = load i32, ptr %3, align 4, !tbaa !71
  %5 = add i32 %4, -1
  %6 = load i32, ptr %1, align 4, !tbaa !95
  %7 = getelementptr inbounds nuw i8, ptr %1, i64 4
  %8 = load i32, ptr %7, align 4, !tbaa !97
  %9 = icmp slt i32 %6, %8
  br i1 %9, label %.lr.ph26, label %._crit_edge

.lr.ph26:                                         ; preds = %2
  %10 = getelementptr inbounds nuw i8, ptr %0, i64 24
  %11 = load ptr, ptr %10, align 8, !tbaa !98
  %12 = getelementptr inbounds nuw i8, ptr %0, i64 80
  %13 = load ptr, ptr %12, align 8, !tbaa !99
  %14 = load i64, ptr %13, align 8, !tbaa !100
  %15 = getelementptr inbounds nuw i8, ptr %0, i64 120
  %16 = load ptr, ptr %15, align 8, !tbaa !98
  %17 = getelementptr inbounds nuw i8, ptr %0, i64 176
  %18 = load ptr, ptr %17, align 8, !tbaa !99
  %19 = load i64, ptr %18, align 8, !tbaa !100
  %20 = getelementptr inbounds nuw i8, ptr %0, i64 216
  %21 = load ptr, ptr %20, align 8, !tbaa !98
  %22 = getelementptr inbounds nuw i8, ptr %0, i64 272
  %23 = load ptr, ptr %22, align 8, !tbaa !99
  %24 = load i64, ptr %23, align 8, !tbaa !100
  %25 = icmp sgt i32 %4, 1
  br i1 %25, label %.lr.ph.us.preheader, label %._crit_edge

.lr.ph.us.preheader:                              ; preds = %.lr.ph26
  %26 = sext i32 %6 to i64
  %wide.trip.count32 = sext i32 %8 to i64
  %wide.trip.count = zext i32 %5 to i64
  br label %.lr.ph.us

.lr.ph.us:                                        ; preds = %.lr.ph.us.preheader, %..loopexit_crit_edge.us
  %indvars.iv29 = phi i64 [ %26, %.lr.ph.us.preheader ], [ %indvars.iv.next30, %..loopexit_crit_edge.us ]
  %27 = mul i64 %14, %indvars.iv29
  %28 = getelementptr inbounds nuw i8, ptr %11, i64 %27
  %indvars.iv.next30 = add nsw i64 %indvars.iv29, 1
  %29 = mul i64 %14, %indvars.iv.next30
  %30 = getelementptr inbounds nuw i8, ptr %11, i64 %29
  %31 = mul i64 %19, %indvars.iv29
  %32 = getelementptr inbounds nuw i8, ptr %16, i64 %31
  %33 = mul i64 %24, %indvars.iv29
  %34 = getelementptr inbounds nuw i8, ptr %21, i64 %33
  br label %35

35:                                               ; preds = %.lr.ph.us, %35
  %indvars.iv = phi i64 [ 0, %.lr.ph.us ], [ %indvars.iv.next, %35 ]
  %indvars.iv.next = add nuw nsw i64 %indvars.iv, 1
  %36 = getelementptr inbounds nuw float, ptr %28, i64 %indvars.iv.next
  %37 = load float, ptr %36, align 4, !tbaa !101
  %38 = getelementptr inbounds nuw float, ptr %28, i64 %indvars.iv
  %39 = load float, ptr %38, align 4, !tbaa !101
  %40 = fsub float %37, %39
  %41 = getelementptr inbounds nuw float, ptr %32, i64 %indvars.iv
  store float %40, ptr %41, align 4, !tbaa !101
  %42 = getelementptr inbounds nuw float, ptr %30, i64 %indvars.iv
  %43 = load float, ptr %42, align 4, !tbaa !101
  %44 = load float, ptr %38, align 4, !tbaa !101
  %45 = fsub float %43, %44
  %46 = getelementptr inbounds nuw float, ptr %34, i64 %indvars.iv
  store float %45, ptr %46, align 4, !tbaa !101
  %exitcond.not = icmp eq i64 %indvars.iv.next, %wide.trip.count
  br i1 %exitcond.not, label %..loopexit_crit_edge.us, label %35, !llvm.loop !121

..loopexit_crit_edge.us:                          ; preds = %35
  %exitcond33.not = icmp eq i64 %indvars.iv.next30, %wide.trip.count32
  br i1 %exitcond33.not, label %._crit_edge, label %.lr.ph.us, !llvm.loop !122

._crit_edge:                                      ; preds = %..loopexit_crit_edge.us, %.lr.ph26, %2
  ret void
}